

Microchip MPLAB XC8 Assembler V2.10 build 88905656 
                                                                                               Wed Jan 27 13:52:04 2021

Microchip MPLAB XC8 C Compiler v2.10 (Free license) build 20190730164152 Og1 
     1                           	processor	18F45K20
     2                           	fnconf	rparam,??,?,0
     3                           	opt	pw 120
     4                           	opt	flic
     5                           	psect	idataCOMRAM,global,class=CODE,delta=1,noexec
     6                           	psect	idataBANK0,global,class=CODE,delta=1,noexec
     7                           	psect	cinit,global,reloc=2,class=CODE,delta=1
     8                           	psect	bssCOMRAM,global,class=COMRAM,space=1,delta=1,noexec
     9                           	psect	dataCOMRAM,global,class=COMRAM,space=1,delta=1,noexec
    10                           	psect	dataBANK0,global,class=BANK0,space=1,delta=1,lowdata,noexec
    11                           	psect	cstackCOMRAM,global,class=COMRAM,space=1,delta=1,noexec
    12                           	psect	text0,global,reloc=2,class=CODE,delta=1
    13                           	psect	text1,global,reloc=2,class=CODE,delta=1
    14                           	psect	text2,global,reloc=2,class=CODE,delta=1
    15                           	psect	text3,global,reloc=2,class=CODE,delta=1
    16                           	psect	text4,global,reloc=2,class=CODE,delta=1
    17                           	psect	text5,global,reloc=2,class=CODE,delta=1
    18                           	psect	text6,global,reloc=2,class=CODE,delta=1
    19                           	psect	text7,global,reloc=2,class=CODE,delta=1
    20                           	psect	text8,global,reloc=2,class=CODE,delta=1
    21                           	psect	text9,global,reloc=2,class=CODE,delta=1
    22                           	psect	intcode,global,reloc=2,class=CODE,delta=1
    23                           	psect	text11,global,reloc=2,class=CODE,delta=1
    24                           	psect	text12,global,reloc=2,class=CODE,delta=1,inline
    25                           	psect	intsave_regs,global,class=BIGRAM,space=1,delta=1,noexec
    26                           	psect	rparam,global,class=COMRAM,space=1,delta=1,noexec
    27                           	psect	temp,global,ovrld,common,class=COMRAM,space=1,delta=1
    28  0000                     
    29                           ; Version 2.10
    30                           ; Generated 31/07/2019 GMT
    31                           ; 
    32                           ; Copyright © 2019, Microchip Technology Inc. and its subsidiaries ("Microchip")
    33                           ; All rights reserved.
    34                           ; 
    35                           ; This software is developed by Microchip Technology Inc. and its subsidiaries ("Microch
      +                          ip").
    36                           ; 
    37                           ; Redistribution and use in source and binary forms, with or without modification, are
    38                           ; permitted provided that the following conditions are met:
    39                           ; 
    40                           ;     1. Redistributions of source code must retain the above copyright notice, this lis
      +                          t of
    41                           ;        conditions and the following disclaimer.
    42                           ; 
    43                           ;     2. Redistributions in binary form must reproduce the above copyright notice, this 
      +                          list
    44                           ;        of conditions and the following disclaimer in the documentation and/or other
    45                           ;        materials provided with the distribution.
    46                           ; 
    47                           ;     3. Microchip's name may not be used to endorse or promote products derived from th
      +                          is
    48                           ;        software without specific prior written permission.
    49                           ; 
    50                           ; THIS SOFTWARE IS PROVIDED BY MICROCHIP "AS IS" AND ANY EXPRESS OR IMPLIED WARRANTIES,
    51                           ; INCLUDING, BUT NOT LIMITED TO, THE IMPLIED WARRANTIES OF MERCHANTABILITY AND FITNESS F
      +                          OR
    52                           ; PURPOSE ARE DISCLAIMED.  IN NO EVENT SHALL MICROCHIP BE LIABLE FOR ANY DIRECT, INDIREC
      +                          T,
    53                           ; INCIDENTAL, SPECIAL, EXEMPLARY, OR CONSEQUENTIAL DAMAGES (INCLUDING BUT NOT LIMITED TO
    54                           ; PROCUREMENT OF SUBSTITUTE GOODS OR SERVICES; LOSS OF USE, DATA OR PROFITS; OR BUSINESS
    55                           ; INTERRUPTION) HOWSOEVER CAUSED AND ON ANY THEORY OF LIABILITY, WHETHER IN CONTRACT, ST
      +                          RICT
    56                           ; LIABILITY, OR TORT (INCLUDING NEGLIGENCE OR OTHERWISE) ARISING IN ANY WAY OUT OF THE U
      +                          SE OF
    57                           ; THIS SOFTWARE, EVEN IF ADVISED OF THE POSSIBILITY OF SUCH DAMAGE.
    58                           ; 
    59                           ; 
    60                           ; Code-generator required, PIC18F45K20 Definitions
    61                           ; 
    62                           ; SFR Addresses
    63  0000                     
    64                           	psect	idataCOMRAM
    65  00028A                     __pidataCOMRAM:
    66                           	opt callstack 0
    67                           
    68                           ;initializer for _astOutputs
    69  00028A  89                 	db	137
    70  00028B  0F                 	db	15
    71  00028C  00                 	db	0
    72  00028D  89                 	db	137
    73  00028E  0F                 	db	15
    74  00028F  01                 	db	1
    75  000290  89                 	db	137
    76  000291  0F                 	db	15
    77  000292  02                 	db	2
    78  000293  89                 	db	137
    79  000294  0F                 	db	15
    80  000295  03                 	db	3
    81  000296  89                 	db	137
    82  000297  0F                 	db	15
    83  000298  04                 	db	4
    84  000299  89                 	db	137
    85  00029A  0F                 	db	15
    86  00029B  05                 	db	5
    87  00029C  89                 	db	137
    88  00029D  0F                 	db	15
    89  00029E  06                 	db	6
    90  00029F  89                 	db	137
    91  0002A0  0F                 	db	15
    92  0002A1  07                 	db	7
    93  0002A2  8A                 	db	138
    94  0002A3  0F                 	db	15
    95  0002A4  01                 	db	1
    96                           
    97                           ;initializer for _astLEDs
    98  0002A5  8B                 	db	139
    99  0002A6  0F                 	db	15
   100  0002A7  00                 	db	0
   101  0002A8  8B                 	db	139
   102  0002A9  0F                 	db	15
   103  0002AA  02                 	db	2
   104  0002AB  8B                 	db	139
   105  0002AC  0F                 	db	15
   106  0002AD  01                 	db	1
   107  0002AE  8B                 	db	139
   108  0002AF  0F                 	db	15
   109  0002B0  05                 	db	5
   110  0002B1  8B                 	db	139
   111  0002B2  0F                 	db	15
   112  0002B3  06                 	db	6
   113  0002B4  8B                 	db	139
   114  0002B5  0F                 	db	15
   115  0002B6  07                 	db	7
   116  0002B7  8A                 	db	138
   117  0002B8  0F                 	db	15
   118  0002B9  03                 	db	3
   119  0002BA  8A                 	db	138
   120  0002BB  0F                 	db	15
   121  0002BC  04                 	db	4
   122  0002BD  8D                 	db	141
   123  0002BE  0F                 	db	15
   124  0002BF  00                 	db	0
   125                           
   126                           	psect	idataBANK0
   127  00037E                     __pidataBANK0:
   128                           	opt callstack 0
   129                           
   130                           ;initializer for _astInputs
   131  00037E  83                 	db	131
   132  00037F  0F                 	db	15
   133  000380  00                 	db	0
   134  000381  83                 	db	131
   135  000382  0F                 	db	15
   136  000383  01                 	db	1
   137  000384  83                 	db	131
   138  000385  0F                 	db	15
   139  000386  02                 	db	2
   140  000387  83                 	db	131
   141  000388  0F                 	db	15
   142  000389  03                 	db	3
   143  00038A  83                 	db	131
   144  00038B  0F                 	db	15
   145  00038C  04                 	db	4
   146  00038D  83                 	db	131
   147  00038E  0F                 	db	15
   148  00038F  05                 	db	5
   149  000390  83                 	db	131
   150  000391  0F                 	db	15
   151  000392  06                 	db	6
   152  000393  83                 	db	131
   153  000394  0F                 	db	15
   154  000395  07                 	db	7
   155  000396  81                 	db	129
   156  000397  0F                 	db	15
   157  000398  00                 	db	0
   158  0000                     _T3CONbits	set	4017
   159  0000                     _T0CONbits	set	4053
   160  0000                     _INTCONbits	set	4082
   161  0000                     _TMR3L	set	4018
   162  0000                     _TMR3H	set	4019
   163  0000                     _TMR0L	set	4054
   164  0000                     _TMR0H	set	4055
   165  0000                     _T3CON	set	4017
   166  0000                     _OSCCON	set	4051
   167  0000                     _T0CON	set	4053
   168  0000                     _TRISEbits	set	3990
   169  0000                     _TRISD	set	3989
   170  0000                     _TRISBbits	set	3987
   171  0000                     _TRISC	set	3988
   172  0000                     _TRISA	set	3986
   173  0000                     _LATEbits	set	3981
   174  0000                     _LATBbits	set	3978
   175  0000                     _LATA	set	3977
   176  0000                     _PORTB	set	3969
   177  0000                     _PORTD	set	3971
   178  0000                     _LATE	set	3981
   179  0000                     _LATB	set	3978
   180  0000                     _LATC	set	3979
   181  0000                     _TMR3IF	set	32009
   182  0000                     _TMR0IF	set	32658
   183                           
   184                           ; #config settings
   185  0000                     
   186                           	psect	cinit
   187  0001E4                     __pcinit:
   188                           	opt callstack 0
   189  0001E4                     start_initialization:
   190                           	opt callstack 0
   191  0001E4                     __initialization:
   192                           	opt callstack 0
   193                           
   194                           ; Initialize objects allocated to BANK0 (27 bytes)
   195                           ; load TBLPTR registers with __pidataBANK0
   196  0001E4  0E7E               	movlw	low __pidataBANK0
   197  0001E6  6EF6               	movwf	tblptrl,c
   198  0001E8  0E03               	movlw	high __pidataBANK0
   199  0001EA  6EF7               	movwf	tblptrh,c
   200  0001EC  0E00               	movlw	low (__pidataBANK0 shr (0+16))
   201  0001EE  6EF8               	movwf	tblptru,c
   202  0001F0  EE00  F060         	lfsr	0,__pdataBANK0
   203  0001F4  EE10 F01B          	lfsr	1,27
   204  0001F8                     copy_data0:
   205  0001F8  0009               	tblrd		*+
   206  0001FA  CFF5 FFEE          	movff	tablat,postinc0
   207  0001FE  50E5               	movf	postdec1,w,c
   208  000200  50E1               	movf	fsr1l,w,c
   209  000202  E1FA               	bnz	copy_data0
   210                           
   211                           ; Initialize objects allocated to COMRAM (54 bytes)
   212                           ; load TBLPTR registers with __pidataCOMRAM
   213  000204  0E8A               	movlw	low __pidataCOMRAM
   214  000206  6EF6               	movwf	tblptrl,c
   215  000208  0E02               	movlw	high __pidataCOMRAM
   216  00020A  6EF7               	movwf	tblptrh,c
   217  00020C  0E00               	movlw	low (__pidataCOMRAM shr (0+16))
   218  00020E  6EF8               	movwf	tblptru,c
   219  000210  EE00  F001         	lfsr	0,__pdataCOMRAM
   220  000214  EE10 F036          	lfsr	1,54
   221  000218                     copy_data1:
   222  000218  0009               	tblrd		*+
   223  00021A  CFF5 FFEE          	movff	tablat,postinc0
   224  00021E  50E5               	movf	postdec1,w,c
   225  000220  50E1               	movf	fsr1l,w,c
   226  000222  E1FA               	bnz	copy_data1
   227                           
   228                           ; Clear objects allocated to COMRAM (10 bytes)
   229  000224  EE00  F047         	lfsr	0,__pbssCOMRAM
   230  000228  0E0A               	movlw	10
   231  00022A                     clear_0:
   232  00022A  6AEE               	clrf	postinc0,c
   233  00022C  06E8               	decf	wreg,f,c
   234  00022E  E1FD               	bnz	clear_0
   235  000230                     end_of_initialization:
   236                           	opt callstack 0
   237  000230                     __end_of__initialization:
   238                           	opt callstack 0
   239  000230  9051               	bcf	int$flags,0,c	;clear compiler interrupt flag (level 1)
   240  000232  9251               	bcf	int$flags,1,c	;clear compiler interrupt flag (level 2)
   241  000234  0100               	movlb	0
   242  000236  EF60  F001         	goto	_main	;jump to C main() function
   243                           
   244                           	psect	bssCOMRAM
   245  000047                     __pbssCOMRAM:
   246                           	opt callstack 0
   247  000047                     heartbeat@uwStartTime:
   248                           	opt callstack 0
   249  000047                     	ds	2
   250  000049                     testing@nbFirst:
   251                           	opt callstack 0
   252  000049                     	ds	1
   253  00004A                     testing@ucLocalTicks:
   254                           	opt callstack 0
   255  00004A                     	ds	1
   256  00004B                     testing@b:
   257                           	opt callstack 0
   258  00004B                     	ds	1
   259  00004C                     heartbeat@ucOverFlow:
   260                           	opt callstack 0
   261  00004C                     	ds	1
   262  00004D                     heartbeat@nbFirst:
   263                           	opt callstack 0
   264  00004D                     	ds	1
   265  00004E                     _gucTestBit:
   266                           	opt callstack 0
   267  00004E                     	ds	1
   268  00004F                     _guc_3_Tick:
   269                           	opt callstack 0
   270  00004F                     	ds	1
   271  000050                     _gbTick:
   272                           	opt callstack 0
   273  000050                     	ds	1
   274                           
   275                           	psect	dataCOMRAM
   276  000001                     __pdataCOMRAM:
   277                           	opt callstack 0
   278  000001                     _astOutputs:
   279                           	opt callstack 0
   280  000001                     	ds	27
   281  00001C                     _astLEDs:
   282                           	opt callstack 0
   283  00001C                     	ds	27
   284                           
   285                           	psect	dataBANK0
   286  000060                     __pdataBANK0:
   287                           	opt callstack 0
   288  000060                     _astInputs:
   289                           	opt callstack 0
   290  000060                     	ds	27
   291                           
   292                           	psect	cstackCOMRAM
   293  000037                     __pcstackCOMRAM:
   294                           	opt callstack 0
   295  000037                     ??_ISR:
   296  000037                     
   297                           ; 1 bytes @ 0x0
   298  000037                     	ds	1
   299  000038                     set_IO@IO:
   300                           	opt callstack 0
   301  000038                     get_IO@IO:
   302                           	opt callstack 0
   303                           
   304                           ; 2 bytes @ 0x1
   305  000038                     	ds	2
   306  00003A                     set_IO@item:
   307                           	opt callstack 0
   308  00003A                     get_IO@item:
   309                           	opt callstack 0
   310                           
   311                           ; 1 bytes @ 0x3
   312  00003A                     	ds	1
   313  00003B                     ??_get_IO:
   314  00003B                     set_IO@bValue:
   315                           	opt callstack 0
   316                           
   317                           ; 1 bytes @ 0x4
   318  00003B                     	ds	1
   319  00003C                     ??_set_IO:
   320                           
   321                           ; 1 bytes @ 0x5
   322  00003C                     	ds	5
   323  000041                     set_IO@ucLocal:
   324                           	opt callstack 0
   325                           
   326                           ; 2 bytes @ 0xA
   327  000041                     	ds	2
   328  000043                     clr_LEDs@uc:
   329                           	opt callstack 0
   330  000043                     all_LEDs@uc:
   331                           	opt callstack 0
   332  000043                     compare_IO@bOutput:
   333                           	opt callstack 0
   334                           
   335                           ; 1 bytes @ 0xC
   336  000043                     	ds	1
   337  000044                     compare_IO@bInput:
   338                           	opt callstack 0
   339                           
   340                           ; 1 bytes @ 0xD
   341  000044                     	ds	1
   342  000045                     compare_IO@TargetBit:
   343                           	opt callstack 0
   344                           
   345                           ; 1 bytes @ 0xE
   346  000045                     	ds	1
   347  000046                     testing@TargetBit:
   348                           	opt callstack 0
   349                           
   350                           ; 1 bytes @ 0xF
   351  000046                     	ds	1
   352  000047                     
   353                           ; 1 bytes @ 0x10
   354 ;;
   355 ;;Main: autosize = 0, tempsize = 0, incstack = 0, save=0
   356 ;;
   357 ;; *************** function _main *****************
   358 ;; Defined at:
   359 ;;		line 73 in file "main.c"
   360 ;; Parameters:    Size  Location     Type
   361 ;;		None
   362 ;; Auto vars:     Size  Location     Type
   363 ;;		None
   364 ;; Return value:  Size  Location     Type
   365 ;;                  1    wreg      void 
   366 ;; Registers used:
   367 ;;		wreg, fsr2l, fsr2h, status,2, status,0, prodl, prodh, cstack
   368 ;; Tracked objects:
   369 ;;		On entry : 0/0
   370 ;;		On exit  : 0/0
   371 ;;		Unchanged: 0/0
   372 ;; Data sizes:     COMRAM   BANK0   BANK1   BANK2   BANK3   BANK4   BANK5
   373 ;;      Params:         0       0       0       0       0       0       0
   374 ;;      Locals:         0       0       0       0       0       0       0
   375 ;;      Temps:          0       0       0       0       0       0       0
   376 ;;      Totals:         0       0       0       0       0       0       0
   377 ;;Total ram usage:        0 bytes
   378 ;; Hardware stack levels required when called:    5
   379 ;; This function calls:
   380 ;;		_clr_LEDs
   381 ;;		_setup
   382 ;;		_testing
   383 ;; This function is called by:
   384 ;;		Startup code after reset
   385 ;; This function uses a non-reentrant model
   386 ;;
   387                           
   388                           	psect	text0
   389  0002C0                     __ptext0:
   390                           	opt callstack 0
   391  0002C0                     _main:
   392                           	opt callstack 26
   393  0002C0                     
   394                           ;main.c: 75:     setup();
   395  0002C0  ECA3  F001         	call	_setup	;wreg free
   396                           
   397                           ;main.c: 76:     clr_LEDs();
   398  0002C4  EC8D  F001         	call	_clr_LEDs	;wreg free
   399  0002C8                     l67:
   400                           
   401                           ;main.c: 85:     {;main.c: 88:         testing(gucTestBit);
   402  0002C8  504E               	movf	_gucTestBit^0,w,c
   403  0002CA  ECC6  F000         	call	_testing
   404  0002CE                     
   405                           ;main.c: 89:         if(gucTestBit > 9)
   406  0002CE  0E09               	movlw	9
   407  0002D0  644E               	cpfsgt	_gucTestBit^0,c
   408  0002D2  EF6D  F001         	goto	u331
   409  0002D6  EF6F  F001         	goto	u330
   410  0002DA                     u331:
   411  0002DA  EF64  F001         	goto	l67
   412  0002DE                     u330:
   413  0002DE                     
   414                           ;main.c: 90:         {;main.c: 91:             gucTestBit = 0;
   415  0002DE  0E00               	movlw	0
   416  0002E0  6E4E               	movwf	_gucTestBit^0,c
   417  0002E2                     
   418                           ;main.c: 92:             clr_LEDs();
   419  0002E2  EC8D  F001         	call	_clr_LEDs	;wreg free
   420  0002E6  EF64  F001         	goto	l67
   421  0002EA  EF2F  F000         	goto	start
   422  0002EE                     __end_of_main:
   423                           	opt callstack 0
   424                           
   425 ;; *************** function _testing *****************
   426 ;; Defined at:
   427 ;;		line 193 in file "setup.c"
   428 ;; Parameters:    Size  Location     Type
   429 ;;  TargetBit       1    wreg     unsigned char 
   430 ;; Auto vars:     Size  Location     Type
   431 ;;  TargetBit       1   15[COMRAM] unsigned char 
   432 ;; Return value:  Size  Location     Type
   433 ;;                  1    wreg      void 
   434 ;; Registers used:
   435 ;;		wreg, fsr2l, fsr2h, status,2, status,0, prodl, prodh, cstack
   436 ;; Tracked objects:
   437 ;;		On entry : 0/0
   438 ;;		On exit  : 0/0
   439 ;;		Unchanged: 0/0
   440 ;; Data sizes:     COMRAM   BANK0   BANK1   BANK2   BANK3   BANK4   BANK5
   441 ;;      Params:         0       0       0       0       0       0       0
   442 ;;      Locals:         1       0       0       0       0       0       0
   443 ;;      Temps:          0       0       0       0       0       0       0
   444 ;;      Totals:         1       0       0       0       0       0       0
   445 ;;Total ram usage:        1 bytes
   446 ;; Hardware stack levels used:    1
   447 ;; Hardware stack levels required when called:    4
   448 ;; This function calls:
   449 ;;		_compare_IO
   450 ;;		_set_IO
   451 ;; This function is called by:
   452 ;;		_main
   453 ;; This function uses a non-reentrant model
   454 ;;
   455                           
   456                           	psect	text1
   457  00018C                     __ptext1:
   458                           	opt callstack 0
   459  00018C                     _testing:
   460                           	opt callstack 26
   461                           
   462                           ;incstack = 0
   463                           ;testing@TargetBit stored from wreg
   464  00018C  6E46               	movwf	testing@TargetBit^0,c
   465  00018E                     
   466                           ;setup.c: 193: void testing(unsigned char TargetBit);setup.c: 194: {;setup.c: 195:     s
      +                          tatic unsigned char b;;setup.c: 196:     static unsigned char ucLocalTicks;;setup.c: 197
      +                          :     static unsigned char nbFirst;;setup.c: 198:     if(!nbFirst)
   467  00018E  5049               	movf	testing@nbFirst^0,w,c
   468  000190  A4D8               	btfss	status,2,c
   469  000192  EFCD  F000         	goto	u311
   470  000196  EFCF  F000         	goto	u310
   471  00019A                     u311:
   472  00019A  EFD6  F000         	goto	l1109
   473  00019E                     u310:
   474  00019E                     
   475                           ;setup.c: 199:     {;setup.c: 200:         b = 1;
   476  00019E  0E01               	movlw	1
   477  0001A0  6E4B               	movwf	testing@b^0,c
   478                           
   479                           ;setup.c: 201:         nbFirst = 1;
   480  0001A2  0E01               	movlw	1
   481  0001A4  6E49               	movwf	testing@nbFirst^0,c
   482  0001A6                     
   483                           ;setup.c: 202:         ucLocalTicks = guc_3_Tick;
   484  0001A6  C04F  F04A         	movff	_guc_3_Tick,testing@ucLocalTicks
   485  0001AA                     
   486                           ;setup.c: 203:         T3CONbits.TMR3ON = 1;
   487  0001AA  80B1               	bsf	177,0,c	;volatile
   488  0001AC                     l1109:
   489                           
   490                           ;setup.c: 205:     if(ucLocalTicks != guc_3_Tick)
   491  0001AC  504F               	movf	_guc_3_Tick^0,w,c
   492  0001AE  184A               	xorwf	testing@ucLocalTicks^0,w,c
   493  0001B0  B4D8               	btfsc	status,2,c
   494  0001B2  EFDD  F000         	goto	u321
   495  0001B6  EFDF  F000         	goto	u320
   496  0001BA                     u321:
   497  0001BA  EFE4  F000         	goto	l1115
   498  0001BE                     u320:
   499  0001BE                     
   500                           ;setup.c: 206:     {;setup.c: 207:         T3CONbits.TMR3ON = 0;
   501  0001BE  90B1               	bcf	177,0,c	;volatile
   502  0001C0                     
   503                           ;setup.c: 208:         b = 0;
   504  0001C0  0E00               	movlw	0
   505  0001C2  6E4B               	movwf	testing@b^0,c
   506                           
   507                           ;setup.c: 209:         nbFirst = 0;
   508  0001C4  0E00               	movlw	0
   509  0001C6  6E49               	movwf	testing@nbFirst^0,c
   510  0001C8                     l1115:
   511                           
   512                           ;setup.c: 211:     set_IO(astOutputs,TargetBit,b);
   513  0001C8  0E01               	movlw	low _astOutputs
   514  0001CA  6E38               	movwf	set_IO@IO^0,c
   515  0001CC  0E00               	movlw	high _astOutputs
   516  0001CE  6E39               	movwf	(set_IO@IO+1)^0,c
   517  0001D0  C046  F03A         	movff	testing@TargetBit,set_IO@item
   518  0001D4  C04B  F03B         	movff	testing@b,set_IO@bValue
   519  0001D8  EC31  F000         	call	_set_IO	;wreg free
   520  0001DC                     
   521                           ;setup.c: 212:     compare_IO(TargetBit);
   522  0001DC  5046               	movf	testing@TargetBit^0,w,c
   523  0001DE  EC1D  F001         	call	_compare_IO
   524  0001E2  0012               	return		;funcret
   525  0001E4                     __end_of_testing:
   526                           	opt callstack 0
   527                           
   528 ;; *************** function _compare_IO *****************
   529 ;; Defined at:
   530 ;;		line 185 in file "setup.c"
   531 ;; Parameters:    Size  Location     Type
   532 ;;  TargetBit       1    wreg     unsigned char 
   533 ;; Auto vars:     Size  Location     Type
   534 ;;  TargetBit       1   14[COMRAM] unsigned char 
   535 ;;  bInput          1   13[COMRAM] unsigned char 
   536 ;;  bOutput         1   12[COMRAM] unsigned char 
   537 ;; Return value:  Size  Location     Type
   538 ;;                  1    wreg      void 
   539 ;; Registers used:
   540 ;;		wreg, fsr2l, fsr2h, status,2, status,0, prodl, prodh, cstack
   541 ;; Tracked objects:
   542 ;;		On entry : 0/0
   543 ;;		On exit  : 0/0
   544 ;;		Unchanged: 0/0
   545 ;; Data sizes:     COMRAM   BANK0   BANK1   BANK2   BANK3   BANK4   BANK5
   546 ;;      Params:         0       0       0       0       0       0       0
   547 ;;      Locals:         3       0       0       0       0       0       0
   548 ;;      Temps:          0       0       0       0       0       0       0
   549 ;;      Totals:         3       0       0       0       0       0       0
   550 ;;Total ram usage:        3 bytes
   551 ;; Hardware stack levels used:    1
   552 ;; Hardware stack levels required when called:    3
   553 ;; This function calls:
   554 ;;		_get_IO
   555 ;;		_set_IO
   556 ;; This function is called by:
   557 ;;		_testing
   558 ;; This function uses a non-reentrant model
   559 ;;
   560                           
   561                           	psect	text2
   562  00023A                     __ptext2:
   563                           	opt callstack 0
   564  00023A                     _compare_IO:
   565                           	opt callstack 26
   566                           
   567                           ;incstack = 0
   568                           ;compare_IO@TargetBit stored from wreg
   569  00023A  6E45               	movwf	compare_IO@TargetBit^0,c
   570  00023C                     
   571                           ;setup.c: 185: void compare_IO(unsigned char TargetBit);setup.c: 186: {;setup.c: 187:   
      +                            unsigned char bOutput = get_IO(astOutputs,TargetBit);
   572  00023C  0E01               	movlw	low _astOutputs
   573  00023E  6E38               	movwf	get_IO@IO^0,c
   574  000240  0E00               	movlw	high _astOutputs
   575  000242  6E39               	movwf	(get_IO@IO+1)^0,c
   576  000244  C045  F03A         	movff	compare_IO@TargetBit,get_IO@item
   577  000248  EC93  F000         	call	_get_IO	;wreg free
   578  00024C  6E43               	movwf	compare_IO@bOutput^0,c
   579                           
   580                           ;setup.c: 188:     unsigned char bInput = get_IO(astInputs ,TargetBit);
   581  00024E  0E60               	movlw	low _astInputs
   582  000250  6E38               	movwf	get_IO@IO^0,c
   583  000252  0E00               	movlw	high _astInputs
   584  000254  6E39               	movwf	(get_IO@IO+1)^0,c
   585  000256  C045  F03A         	movff	compare_IO@TargetBit,get_IO@item
   586  00025A  EC93  F000         	call	_get_IO	;wreg free
   587  00025E  6E44               	movwf	compare_IO@bInput^0,c
   588                           
   589                           ;setup.c: 189:     set_IO(astLEDs,TargetBit,(bOutput == bInput==1));
   590  000260  0E1C               	movlw	low _astLEDs
   591  000262  6E38               	movwf	set_IO@IO^0,c
   592  000264  0E00               	movlw	high _astLEDs
   593  000266  6E39               	movwf	(set_IO@IO+1)^0,c
   594  000268  C045  F03A         	movff	compare_IO@TargetBit,set_IO@item
   595  00026C  5044               	movf	compare_IO@bInput^0,w,c
   596  00026E  1843               	xorwf	compare_IO@bOutput^0,w,c
   597  000270  B4D8               	btfsc	status,2,c
   598  000272  EF3D  F001         	goto	u281
   599  000276  EF40  F001         	goto	u280
   600  00027A                     u281:
   601  00027A  0E01               	movlw	1
   602  00027C  EF41  F001         	goto	u290
   603  000280                     u280:
   604  000280  0E00               	movlw	0
   605  000282                     u290:
   606  000282  6E3B               	movwf	set_IO@bValue^0,c
   607  000284  EC31  F000         	call	_set_IO	;wreg free
   608  000288  0012               	return		;funcret
   609  00028A                     __end_of_compare_IO:
   610                           	opt callstack 0
   611                           
   612 ;; *************** function _get_IO *****************
   613 ;; Defined at:
   614 ;;		line 24 in file "setup.c"
   615 ;; Parameters:    Size  Location     Type
   616 ;;  IO              2    1[COMRAM] PTR struct gstGPIO
   617 ;;		 -> astOutputs(27), astInputs(27), 
   618 ;;  item            1    3[COMRAM] unsigned char 
   619 ;; Auto vars:     Size  Location     Type
   620 ;;		None
   621 ;; Return value:  Size  Location     Type
   622 ;;                  1    wreg      unsigned char 
   623 ;; Registers used:
   624 ;;		wreg, fsr2l, fsr2h, status,2, status,0, prodl, prodh
   625 ;; Tracked objects:
   626 ;;		On entry : 0/0
   627 ;;		On exit  : 0/0
   628 ;;		Unchanged: 0/0
   629 ;; Data sizes:     COMRAM   BANK0   BANK1   BANK2   BANK3   BANK4   BANK5
   630 ;;      Params:         3       0       0       0       0       0       0
   631 ;;      Locals:         0       0       0       0       0       0       0
   632 ;;      Temps:          8       0       0       0       0       0       0
   633 ;;      Totals:        11       0       0       0       0       0       0
   634 ;;Total ram usage:       11 bytes
   635 ;; Hardware stack levels used:    1
   636 ;; Hardware stack levels required when called:    2
   637 ;; This function calls:
   638 ;;		Nothing
   639 ;; This function is called by:
   640 ;;		_compare_IO
   641 ;; This function uses a non-reentrant model
   642 ;;
   643                           
   644                           	psect	text3
   645  000126                     __ptext3:
   646                           	opt callstack 0
   647  000126                     _get_IO:
   648                           	opt callstack 26
   649  000126                     
   650                           ;setup.c: 24: unsigned char get_IO (struct gstGPIO *IO, unsigned char item);setup.c: 25:
      +                           {;setup.c: 26:     return (unsigned char)((*IO[item].port >> IO[item].pin) & 0x01);
   651  000126  503A               	movf	get_IO@item^0,w,c
   652  000128  0D03               	mullw	3
   653  00012A  C038  F03B         	movff	get_IO@IO,??_get_IO
   654  00012E  C039  F03C         	movff	get_IO@IO+1,??_get_IO+1
   655  000132  50F3               	movf	243,w,c
   656  000134  263B               	addwf	??_get_IO^0,f,c
   657  000136  50F4               	movf	244,w,c
   658  000138  223C               	addwfc	(??_get_IO+1)^0,f,c
   659  00013A  0E02               	movlw	2
   660  00013C  243B               	addwf	??_get_IO^0,w,c
   661  00013E  6ED9               	movwf	fsr2l,c
   662  000140  0E00               	movlw	0
   663  000142  203C               	addwfc	(??_get_IO+1)^0,w,c
   664  000144  6EDA               	movwf	fsr2h,c
   665  000146  50DF               	movf	indf2,w,c
   666  000148  6E3D               	movwf	(??_get_IO+2)^0,c
   667  00014A  503A               	movf	get_IO@item^0,w,c
   668  00014C  0D03               	mullw	3
   669  00014E  CFF3 F03E          	movff	prodl,??_get_IO+3
   670  000152  CFF4 F03F          	movff	prodh,??_get_IO+4
   671  000156  503E               	movf	(??_get_IO+3)^0,w,c
   672  000158  2438               	addwf	get_IO@IO^0,w,c
   673  00015A  6ED9               	movwf	fsr2l,c
   674  00015C  503F               	movf	(??_get_IO+4)^0,w,c
   675  00015E  2039               	addwfc	(get_IO@IO+1)^0,w,c
   676  000160  6EDA               	movwf	fsr2h,c
   677  000162  CFDE F040          	movff	postinc2,??_get_IO+5
   678  000166  CFDD F041          	movff	postdec2,??_get_IO+6
   679  00016A  C040  FFD9         	movff	??_get_IO+5,fsr2l
   680  00016E  C041  FFDA         	movff	??_get_IO+6,fsr2h
   681  000172  50DF               	movf	indf2,w,c
   682  000174  6E42               	movwf	(??_get_IO+7)^0,c
   683  000176  2A3D               	incf	(??_get_IO+2)^0,f,c
   684  000178  EFC0  F000         	goto	u264
   685  00017C                     u265:
   686  00017C  90D8               	bcf	status,0,c
   687  00017E  3242               	rrcf	(??_get_IO+7)^0,f,c
   688  000180                     u264:
   689  000180  2E3D               	decfsz	(??_get_IO+2)^0,f,c
   690  000182  EFBE  F000         	goto	u265
   691  000186  5042               	movf	(??_get_IO+7)^0,w,c
   692  000188  0B01               	andlw	1
   693  00018A  0012               	return		;funcret
   694  00018C                     __end_of_get_IO:
   695                           	opt callstack 0
   696                           
   697 ;; *************** function _setup *****************
   698 ;; Defined at:
   699 ;;		line 146 in file "setup.c"
   700 ;; Parameters:    Size  Location     Type
   701 ;;		None
   702 ;; Auto vars:     Size  Location     Type
   703 ;;		None
   704 ;; Return value:  Size  Location     Type
   705 ;;                  1    wreg      void 
   706 ;; Registers used:
   707 ;;		wreg, fsr2l, fsr2h, status,2, status,0, prodl, prodh, cstack
   708 ;; Tracked objects:
   709 ;;		On entry : 0/0
   710 ;;		On exit  : 0/0
   711 ;;		Unchanged: 0/0
   712 ;; Data sizes:     COMRAM   BANK0   BANK1   BANK2   BANK3   BANK4   BANK5
   713 ;;      Params:         0       0       0       0       0       0       0
   714 ;;      Locals:         0       0       0       0       0       0       0
   715 ;;      Temps:          0       0       0       0       0       0       0
   716 ;;      Totals:         0       0       0       0       0       0       0
   717 ;;Total ram usage:        0 bytes
   718 ;; Hardware stack levels used:    1
   719 ;; Hardware stack levels required when called:    4
   720 ;; This function calls:
   721 ;;		_IO_setup
   722 ;;		_Timer_and_Interrupt_setup
   723 ;;		_all_LEDs
   724 ;; This function is called by:
   725 ;;		_main
   726 ;; This function uses a non-reentrant model
   727 ;;
   728                           
   729                           	psect	text4
   730  000346                     __ptext4:
   731                           	opt callstack 0
   732  000346                     _setup:
   733                           	opt callstack 26
   734  000346                     
   735                           ;setup.c: 148:     INTCONbits.GIE = 0;
   736  000346  9EF2               	bcf	242,7,c	;volatile
   737  000348                     
   738                           ;setup.c: 149:     IO_setup();
   739  000348  ECB1  F001         	call	_IO_setup	;wreg free
   740  00034C                     
   741                           ;setup.c: 151:     LATBbits.LB2 = 0;
   742  00034C  948A               	bcf	138,2,c	;volatile
   743                           
   744                           ;setup.c: 152:     Timer_and_Interrupt_setup();
   745  00034E  ECCD  F001         	call	_Timer_and_Interrupt_setup	;wreg free
   746  000352                     
   747                           ;setup.c: 153:     INTCONbits.GIE = 1;
   748  000352  8EF2               	bsf	242,7,c	;volatile
   749  000354                     
   750                           ;setup.c: 154:     INTCONbits.PEIE = 1;
   751  000354  8CF2               	bsf	242,6,c	;volatile
   752  000356                     
   753                           ;setup.c: 155:     INTCONbits.TMR0IE = 1;
   754  000356  8AF2               	bsf	242,5,c	;volatile
   755  000358                     
   756                           ;setup.c: 156:     T0CONbits.TMR0ON = 1;
   757  000358  8ED5               	bsf	213,7,c	;volatile
   758  00035A                     
   759                           ;setup.c: 157:     T3CONbits.TMR3ON = 0;
   760  00035A  90B1               	bcf	177,0,c	;volatile
   761  00035C                     
   762                           ;setup.c: 158:     all_LEDs();
   763  00035C  EC77  F001         	call	_all_LEDs	;wreg free
   764  000360  0012               	return		;funcret
   765  000362                     __end_of_setup:
   766                           	opt callstack 0
   767                           
   768 ;; *************** function _all_LEDs *****************
   769 ;; Defined at:
   770 ;;		line 19 in file "leds.c"
   771 ;; Parameters:    Size  Location     Type
   772 ;;		None
   773 ;; Auto vars:     Size  Location     Type
   774 ;;  uc              1   12[COMRAM] unsigned char 
   775 ;; Return value:  Size  Location     Type
   776 ;;                  1    wreg      void 
   777 ;; Registers used:
   778 ;;		wreg, fsr2l, fsr2h, status,2, status,0, prodl, prodh, cstack
   779 ;; Tracked objects:
   780 ;;		On entry : 0/0
   781 ;;		On exit  : 0/0
   782 ;;		Unchanged: 0/0
   783 ;; Data sizes:     COMRAM   BANK0   BANK1   BANK2   BANK3   BANK4   BANK5
   784 ;;      Params:         0       0       0       0       0       0       0
   785 ;;      Locals:         1       0       0       0       0       0       0
   786 ;;      Temps:          0       0       0       0       0       0       0
   787 ;;      Totals:         1       0       0       0       0       0       0
   788 ;;Total ram usage:        1 bytes
   789 ;; Hardware stack levels used:    1
   790 ;; Hardware stack levels required when called:    3
   791 ;; This function calls:
   792 ;;		_set_IO
   793 ;; This function is called by:
   794 ;;		_setup
   795 ;; This function uses a non-reentrant model
   796 ;;
   797                           
   798                           	psect	text5
   799  0002EE                     __ptext5:
   800                           	opt callstack 0
   801  0002EE                     _all_LEDs:
   802                           	opt callstack 26
   803  0002EE                     
   804                           ;leds.c: 22:     for (unsigned char uc = 0; uc < 9; uc++)
   805  0002EE  0E00               	movlw	0
   806  0002F0  6E43               	movwf	all_LEDs@uc^0,c
   807  0002F2                     l1063:
   808                           
   809                           ;leds.c: 23:     {;leds.c: 24:         set_IO(astLEDs, uc, 1);
   810  0002F2  0E1C               	movlw	low _astLEDs
   811  0002F4  6E38               	movwf	set_IO@IO^0,c
   812  0002F6  0E00               	movlw	high _astLEDs
   813  0002F8  6E39               	movwf	(set_IO@IO+1)^0,c
   814  0002FA  C043  F03A         	movff	all_LEDs@uc,set_IO@item
   815  0002FE  0E01               	movlw	1
   816  000300  6E3B               	movwf	set_IO@bValue^0,c
   817  000302  EC31  F000         	call	_set_IO	;wreg free
   818  000306                     
   819                           ;leds.c: 25:     }
   820  000306  2A43               	incf	all_LEDs@uc^0,f,c
   821  000308  0E08               	movlw	8
   822  00030A  6443               	cpfsgt	all_LEDs@uc^0,c
   823  00030C  EF8A  F001         	goto	u271
   824  000310  EF8C  F001         	goto	u270
   825  000314                     u271:
   826  000314  EF79  F001         	goto	l1063
   827  000318                     u270:
   828  000318  0012               	return		;funcret
   829  00031A                     __end_of_all_LEDs:
   830                           	opt callstack 0
   831                           
   832 ;; *************** function _Timer_and_Interrupt_setup *****************
   833 ;; Defined at:
   834 ;;		line 69 in file "setup.c"
   835 ;; Parameters:    Size  Location     Type
   836 ;;		None
   837 ;; Auto vars:     Size  Location     Type
   838 ;;		None
   839 ;; Return value:  Size  Location     Type
   840 ;;                  1    wreg      void 
   841 ;; Registers used:
   842 ;;		wreg, status,2
   843 ;; Tracked objects:
   844 ;;		On entry : 0/0
   845 ;;		On exit  : 0/0
   846 ;;		Unchanged: 0/0
   847 ;; Data sizes:     COMRAM   BANK0   BANK1   BANK2   BANK3   BANK4   BANK5
   848 ;;      Params:         0       0       0       0       0       0       0
   849 ;;      Locals:         0       0       0       0       0       0       0
   850 ;;      Temps:          0       0       0       0       0       0       0
   851 ;;      Totals:         0       0       0       0       0       0       0
   852 ;;Total ram usage:        0 bytes
   853 ;; Hardware stack levels used:    1
   854 ;; Hardware stack levels required when called:    2
   855 ;; This function calls:
   856 ;;		Nothing
   857 ;; This function is called by:
   858 ;;		_setup
   859 ;; This function uses a non-reentrant model
   860 ;;
   861                           
   862                           	psect	text6
   863  00039A                     __ptext6:
   864                           	opt callstack 0
   865  00039A                     _Timer_and_Interrupt_setup:
   866                           	opt callstack 27
   867  00039A                     
   868                           ;setup.c: 74:     T0CON = 0b10010101;
   869  00039A  0E95               	movlw	149
   870  00039C  6ED5               	movwf	213,c	;volatile
   871                           
   872                           ;setup.c: 78:     OSCCON = 0b01100111;
   873  00039E  0E67               	movlw	103
   874  0003A0  6ED3               	movwf	211,c	;volatile
   875                           
   876                           ;setup.c: 81:     T3CON = 0b00000101;
   877  0003A2  0E05               	movlw	5
   878  0003A4  6EB1               	movwf	177,c	;volatile
   879  0003A6  0012               	return		;funcret
   880  0003A8                     __end_of_Timer_and_Interrupt_setup:
   881                           	opt callstack 0
   882                           
   883 ;; *************** function _IO_setup *****************
   884 ;; Defined at:
   885 ;;		line 53 in file "setup.c"
   886 ;; Parameters:    Size  Location     Type
   887 ;;		None
   888 ;; Auto vars:     Size  Location     Type
   889 ;;		None
   890 ;; Return value:  Size  Location     Type
   891 ;;                  1    wreg      void 
   892 ;; Registers used:
   893 ;;		wreg, status,2
   894 ;; Tracked objects:
   895 ;;		On entry : 0/0
   896 ;;		On exit  : 0/0
   897 ;;		Unchanged: 0/0
   898 ;; Data sizes:     COMRAM   BANK0   BANK1   BANK2   BANK3   BANK4   BANK5
   899 ;;      Params:         0       0       0       0       0       0       0
   900 ;;      Locals:         0       0       0       0       0       0       0
   901 ;;      Temps:          0       0       0       0       0       0       0
   902 ;;      Totals:         0       0       0       0       0       0       0
   903 ;;Total ram usage:        0 bytes
   904 ;; Hardware stack levels used:    1
   905 ;; Hardware stack levels required when called:    2
   906 ;; This function calls:
   907 ;;		Nothing
   908 ;; This function is called by:
   909 ;;		_setup
   910 ;; This function uses a non-reentrant model
   911 ;;
   912                           
   913                           	psect	text7
   914  000362                     __ptext7:
   915                           	opt callstack 0
   916  000362                     _IO_setup:
   917                           	opt callstack 27
   918  000362                     
   919                           ;setup.c: 55:   TRISA = 0x00;
   920  000362  0E00               	movlw	0
   921  000364  6E92               	movwf	146,c	;volatile
   922                           
   923                           ;setup.c: 56:   TRISC = 0x00;
   924  000366  0E00               	movlw	0
   925  000368  6E94               	movwf	148,c	;volatile
   926  00036A                     
   927                           ;setup.c: 57:   TRISBbits.RB0 = 1;
   928  00036A  8093               	bsf	147,0,c	;volatile
   929  00036C                     
   930                           ;setup.c: 58:   TRISBbits.RB1 = 0;
   931  00036C  9293               	bcf	147,1,c	;volatile
   932  00036E                     
   933                           ;setup.c: 59:   TRISBbits.RB2 = 0;
   934  00036E  9493               	bcf	147,2,c	;volatile
   935  000370                     
   936                           ;setup.c: 60:   TRISBbits.RB3 = 0;
   937  000370  9693               	bcf	147,3,c	;volatile
   938  000372                     
   939                           ;setup.c: 61:   TRISBbits.RB4 = 0;
   940  000372  9893               	bcf	147,4,c	;volatile
   941  000374                     
   942                           ;setup.c: 62:   TRISD = 0xFF;
   943  000374  6895               	setf	149,c	;volatile
   944  000376                     
   945                           ;setup.c: 63:   TRISEbits.RE0 = 0;
   946  000376  9096               	bcf	150,0,c	;volatile
   947  000378                     
   948                           ;setup.c: 64:   TRISEbits.RE1 = 1;
   949  000378  8296               	bsf	150,1,c	;volatile
   950  00037A                     
   951                           ;setup.c: 65:   TRISEbits.RE2 = 1;
   952  00037A  8496               	bsf	150,2,c	;volatile
   953  00037C  0012               	return		;funcret
   954  00037E                     __end_of_IO_setup:
   955                           	opt callstack 0
   956                           
   957 ;; *************** function _clr_LEDs *****************
   958 ;; Defined at:
   959 ;;		line 11 in file "leds.c"
   960 ;; Parameters:    Size  Location     Type
   961 ;;		None
   962 ;; Auto vars:     Size  Location     Type
   963 ;;  uc              1   12[COMRAM] unsigned char 
   964 ;; Return value:  Size  Location     Type
   965 ;;                  1    wreg      void 
   966 ;; Registers used:
   967 ;;		wreg, fsr2l, fsr2h, status,2, status,0, prodl, prodh, cstack
   968 ;; Tracked objects:
   969 ;;		On entry : 0/0
   970 ;;		On exit  : 0/0
   971 ;;		Unchanged: 0/0
   972 ;; Data sizes:     COMRAM   BANK0   BANK1   BANK2   BANK3   BANK4   BANK5
   973 ;;      Params:         0       0       0       0       0       0       0
   974 ;;      Locals:         1       0       0       0       0       0       0
   975 ;;      Temps:          0       0       0       0       0       0       0
   976 ;;      Totals:         1       0       0       0       0       0       0
   977 ;;Total ram usage:        1 bytes
   978 ;; Hardware stack levels used:    1
   979 ;; Hardware stack levels required when called:    3
   980 ;; This function calls:
   981 ;;		_set_IO
   982 ;; This function is called by:
   983 ;;		_main
   984 ;; This function uses a non-reentrant model
   985 ;;
   986                           
   987                           	psect	text8
   988  00031A                     __ptext8:
   989                           	opt callstack 0
   990  00031A                     _clr_LEDs:
   991                           	opt callstack 27
   992  00031A                     
   993                           ;leds.c: 13:     for (unsigned char uc = 0; uc < 9; uc++)
   994  00031A  0E00               	movlw	0
   995  00031C  6E43               	movwf	clr_LEDs@uc^0,c
   996  00031E                     l1077:
   997                           
   998                           ;leds.c: 14:     {;leds.c: 15:         set_IO(astLEDs, uc, 0);
   999  00031E  0E1C               	movlw	low _astLEDs
  1000  000320  6E38               	movwf	set_IO@IO^0,c
  1001  000322  0E00               	movlw	high _astLEDs
  1002  000324  6E39               	movwf	(set_IO@IO+1)^0,c
  1003  000326  C043  F03A         	movff	clr_LEDs@uc,set_IO@item
  1004  00032A  0E00               	movlw	0
  1005  00032C  6E3B               	movwf	set_IO@bValue^0,c
  1006  00032E  EC31  F000         	call	_set_IO	;wreg free
  1007  000332                     
  1008                           ;leds.c: 16:     }
  1009  000332  2A43               	incf	clr_LEDs@uc^0,f,c
  1010  000334  0E08               	movlw	8
  1011  000336  6443               	cpfsgt	clr_LEDs@uc^0,c
  1012  000338  EFA0  F001         	goto	u301
  1013  00033C  EFA2  F001         	goto	u300
  1014  000340                     u301:
  1015  000340  EF8F  F001         	goto	l1077
  1016  000344                     u300:
  1017  000344  0012               	return		;funcret
  1018  000346                     __end_of_clr_LEDs:
  1019                           	opt callstack 0
  1020                           
  1021 ;; *************** function _set_IO *****************
  1022 ;; Defined at:
  1023 ;;		line 9 in file "setup.c"
  1024 ;; Parameters:    Size  Location     Type
  1025 ;;  IO              2    1[COMRAM] PTR struct gstGPIO
  1026 ;;		 -> astOutputs(27), astLEDs(27), 
  1027 ;;  item            1    3[COMRAM] unsigned char 
  1028 ;;  bValue          1    4[COMRAM] unsigned char 
  1029 ;; Auto vars:     Size  Location     Type
  1030 ;;  ucLocal         2   10[COMRAM] PTR volatile unsigned ch
  1031 ;;		 -> LATA(1), PORTB(1), PORTD(1), LATE(1), 
  1032 ;;		 -> LATB(1), LATC(1), 
  1033 ;; Return value:  Size  Location     Type
  1034 ;;                  1    wreg      void 
  1035 ;; Registers used:
  1036 ;;		wreg, fsr2l, fsr2h, status,2, status,0, prodl, prodh
  1037 ;; Tracked objects:
  1038 ;;		On entry : 0/0
  1039 ;;		On exit  : 0/0
  1040 ;;		Unchanged: 0/0
  1041 ;; Data sizes:     COMRAM   BANK0   BANK1   BANK2   BANK3   BANK4   BANK5
  1042 ;;      Params:         4       0       0       0       0       0       0
  1043 ;;      Locals:         2       0       0       0       0       0       0
  1044 ;;      Temps:          5       0       0       0       0       0       0
  1045 ;;      Totals:        11       0       0       0       0       0       0
  1046 ;;Total ram usage:       11 bytes
  1047 ;; Hardware stack levels used:    1
  1048 ;; Hardware stack levels required when called:    2
  1049 ;; This function calls:
  1050 ;;		Nothing
  1051 ;; This function is called by:
  1052 ;;		_clr_LEDs
  1053 ;;		_all_LEDs
  1054 ;;		_compare_IO
  1055 ;;		_testing
  1056 ;;		_walk_LEDs
  1057 ;; This function uses a non-reentrant model
  1058 ;;
  1059                           
  1060                           	psect	text9
  1061  000062                     __ptext9:
  1062                           	opt callstack 0
  1063  000062                     _set_IO:
  1064                           	opt callstack 27
  1065  000062                     
  1066                           ;setup.c: 9: void set_IO (struct gstGPIO *IO, unsigned char item,unsigned char bValue);s
      +                          etup.c: 10: {;setup.c: 11:     volatile unsigned char *ucLocal;;setup.c: 12:     ucLocal
      +                           = IO[item].port;
  1067  000062  503A               	movf	set_IO@item^0,w,c
  1068  000064  0D03               	mullw	3
  1069  000066  CFF3 F03C          	movff	prodl,??_set_IO
  1070  00006A  CFF4 F03D          	movff	prodh,??_set_IO+1
  1071  00006E  503C               	movf	??_set_IO^0,w,c
  1072  000070  2438               	addwf	set_IO@IO^0,w,c
  1073  000072  6ED9               	movwf	fsr2l,c
  1074  000074  503D               	movf	(??_set_IO+1)^0,w,c
  1075  000076  2039               	addwfc	(set_IO@IO+1)^0,w,c
  1076  000078  6EDA               	movwf	fsr2h,c
  1077  00007A  CFDE F041          	movff	postinc2,set_IO@ucLocal
  1078  00007E  CFDD F042          	movff	postdec2,set_IO@ucLocal+1
  1079  000082                     
  1080                           ;setup.c: 13:     if (bValue)
  1081  000082  503B               	movf	set_IO@bValue^0,w,c
  1082  000084  B4D8               	btfsc	status,2,c
  1083  000086  EF47  F000         	goto	u231
  1084  00008A  EF49  F000         	goto	u230
  1085  00008E                     u231:
  1086  00008E  EF6D  F000         	goto	l1051
  1087  000092                     u230:
  1088  000092                     
  1089                           ;setup.c: 14:     {;setup.c: 15:         *ucLocal |= (1 << IO[item].pin);
  1090  000092  503A               	movf	set_IO@item^0,w,c
  1091  000094  0D03               	mullw	3
  1092  000096  C038  F03C         	movff	set_IO@IO,??_set_IO
  1093  00009A  C039  F03D         	movff	set_IO@IO+1,??_set_IO+1
  1094  00009E  50F3               	movf	243,w,c
  1095  0000A0  263C               	addwf	??_set_IO^0,f,c
  1096  0000A2  50F4               	movf	244,w,c
  1097  0000A4  223D               	addwfc	(??_set_IO+1)^0,f,c
  1098  0000A6  0E02               	movlw	2
  1099  0000A8  243C               	addwf	??_set_IO^0,w,c
  1100  0000AA  6ED9               	movwf	fsr2l,c
  1101  0000AC  0E00               	movlw	0
  1102  0000AE  203D               	addwfc	(??_set_IO+1)^0,w,c
  1103  0000B0  6EDA               	movwf	fsr2h,c
  1104  0000B2  50DF               	movf	indf2,w,c
  1105  0000B4  6E3E               	movwf	(??_set_IO+2)^0,c
  1106  0000B6  0E01               	movlw	1
  1107  0000B8  6E3F               	movwf	(??_set_IO+3)^0,c
  1108  0000BA  2A3E               	incf	(??_set_IO+2)^0,f,c
  1109  0000BC  EF62  F000         	goto	u244
  1110  0000C0                     u245:
  1111  0000C0  90D8               	bcf	status,0,c
  1112  0000C2  363F               	rlcf	(??_set_IO+3)^0,f,c
  1113  0000C4                     u244:
  1114  0000C4  2E3E               	decfsz	(??_set_IO+2)^0,f,c
  1115  0000C6  EF60  F000         	goto	u245
  1116  0000CA  C041  FFD9         	movff	set_IO@ucLocal,fsr2l
  1117  0000CE  C042  FFDA         	movff	set_IO@ucLocal+1,fsr2h
  1118  0000D2  503F               	movf	(??_set_IO+3)^0,w,c
  1119  0000D4  12DF               	iorwf	indf2,f,c
  1120                           
  1121                           ;setup.c: 16:     }
  1122  0000D6  EF92  F000         	goto	l134
  1123  0000DA                     l1051:
  1124                           
  1125                           ;setup.c: 18:     {;setup.c: 19:         *ucLocal &= ~(1 << IO[item].pin);
  1126  0000DA  503A               	movf	set_IO@item^0,w,c
  1127  0000DC  0D03               	mullw	3
  1128  0000DE  C038  F03C         	movff	set_IO@IO,??_set_IO
  1129  0000E2  C039  F03D         	movff	set_IO@IO+1,??_set_IO+1
  1130  0000E6  50F3               	movf	243,w,c
  1131  0000E8  263C               	addwf	??_set_IO^0,f,c
  1132  0000EA  50F4               	movf	244,w,c
  1133  0000EC  223D               	addwfc	(??_set_IO+1)^0,f,c
  1134  0000EE  0E02               	movlw	2
  1135  0000F0  243C               	addwf	??_set_IO^0,w,c
  1136  0000F2  6ED9               	movwf	fsr2l,c
  1137  0000F4  0E00               	movlw	0
  1138  0000F6  203D               	addwfc	(??_set_IO+1)^0,w,c
  1139  0000F8  6EDA               	movwf	fsr2h,c
  1140  0000FA  50DF               	movf	indf2,w,c
  1141  0000FC  6E3E               	movwf	(??_set_IO+2)^0,c
  1142  0000FE  0E01               	movlw	1
  1143  000100  6E3F               	movwf	(??_set_IO+3)^0,c
  1144  000102  2A3E               	incf	(??_set_IO+2)^0,f,c
  1145  000104  EF86  F000         	goto	u254
  1146  000108                     u255:
  1147  000108  90D8               	bcf	status,0,c
  1148  00010A  363F               	rlcf	(??_set_IO+3)^0,f,c
  1149  00010C                     u254:
  1150  00010C  2E3E               	decfsz	(??_set_IO+2)^0,f,c
  1151  00010E  EF84  F000         	goto	u255
  1152  000112  503F               	movf	(??_set_IO+3)^0,w,c
  1153  000114  0AFF               	xorlw	255
  1154  000116  6E40               	movwf	(??_set_IO+4)^0,c
  1155  000118  C041  FFD9         	movff	set_IO@ucLocal,fsr2l
  1156  00011C  C042  FFDA         	movff	set_IO@ucLocal+1,fsr2h
  1157  000120  5040               	movf	(??_set_IO+4)^0,w,c
  1158  000122  16DF               	andwf	indf2,f,c
  1159  000124                     l134:
  1160  000124  0012               	return		;funcret
  1161  000126                     __end_of_set_IO:
  1162                           	opt callstack 0
  1163                           
  1164 ;; *************** function _ISR *****************
  1165 ;; Defined at:
  1166 ;;		line 96 in file "setup.c"
  1167 ;; Parameters:    Size  Location     Type
  1168 ;;		None
  1169 ;; Auto vars:     Size  Location     Type
  1170 ;;		None
  1171 ;; Return value:  Size  Location     Type
  1172 ;;                  1    wreg      void 
  1173 ;; Registers used:
  1174 ;;		wreg, status,2, status,0, cstack
  1175 ;; Tracked objects:
  1176 ;;		On entry : 0/0
  1177 ;;		On exit  : 0/0
  1178 ;;		Unchanged: 0/0
  1179 ;; Data sizes:     COMRAM   BANK0   BANK1   BANK2   BANK3   BANK4   BANK5
  1180 ;;      Params:         0       0       0       0       0       0       0
  1181 ;;      Locals:         0       0       0       0       0       0       0
  1182 ;;      Temps:          1       0       0       0       0       0       0
  1183 ;;      Totals:         1       0       0       0       0       0       0
  1184 ;;Total ram usage:        1 bytes
  1185 ;; Hardware stack levels used:    1
  1186 ;; Hardware stack levels required when called:    1
  1187 ;; This function calls:
  1188 ;;		_clr_Timer
  1189 ;;		_clr_Timer3
  1190 ;; This function is called by:
  1191 ;;		Interrupt level 2
  1192 ;; This function uses a non-reentrant model
  1193 ;;
  1194                           
  1195                           	psect	intcode
  1196  000008                     __pintcode:
  1197                           	opt callstack 0
  1198  000008                     _ISR:
  1199                           	opt callstack 26
  1200                           
  1201                           ;incstack = 0
  1202  000008  8251               	bsf	int$flags,1,c	;set compiler interrupt flag (level 2)
  1203  00000A                     
  1204                           ;setup.c: 98:     if(TMR0IF)
  1205  00000A  A4F2               	btfss	4082,2,c	;volatile
  1206  00000C  EF0A  F000         	goto	i2u15_41
  1207  000010  EF0C  F000         	goto	i2u15_40
  1208  000014                     i2u15_41:
  1209  000014  EF21  F000         	goto	i2l1023
  1210  000018                     i2u15_40:
  1211  000018                     
  1212                           ;setup.c: 99:     {;setup.c: 100:         TMR0IF = 0;
  1213  000018  94F2               	bcf	4082,2,c	;volatile
  1214  00001A                     
  1215                           ;setup.c: 101:         clr_Timer();
  1216  00001A  ECD9  F001         	call	_clr_Timer	;wreg free
  1217  00001E                     
  1218                           ;setup.c: 102:         LATBbits.LB2 = !LATBbits.LB2;
  1219  00001E  A48A               	btfss	138,2,c	;volatile
  1220  000020  EF14  F000         	goto	i2u16_41
  1221  000024  EF18  F000         	goto	i2u16_40
  1222  000028                     i2u16_41:
  1223  000028  6A37               	clrf	??_ISR^0,c
  1224  00002A  2A37               	incf	??_ISR^0,f,c
  1225  00002C  EF19  F000         	goto	i2u17_48
  1226  000030                     i2u16_40:
  1227  000030  6A37               	clrf	??_ISR^0,c
  1228  000032                     i2u17_48:
  1229  000032  4637               	rlncf	??_ISR^0,f,c
  1230  000034  4637               	rlncf	??_ISR^0,f,c
  1231  000036  508A               	movf	138,w,c	;volatile
  1232  000038  1837               	xorwf	??_ISR^0,w,c
  1233  00003A  0BFB               	andlw	-5
  1234  00003C  1837               	xorwf	??_ISR^0,w,c
  1235  00003E  6E8A               	movwf	138,c	;volatile
  1236  000040                     
  1237                           ;setup.c: 103:         gbTick++;
  1238  000040  2A50               	incf	_gbTick^0,f,c
  1239  000042                     i2l1023:
  1240                           
  1241                           ;setup.c: 105:     if(TMR3IF)
  1242  000042  A2A1               	btfss	4001,1,c	;volatile
  1243  000044  EF26  F000         	goto	i2u18_41
  1244  000048  EF28  F000         	goto	i2u18_40
  1245  00004C                     i2u18_41:
  1246  00004C  EF2D  F000         	goto	i2l160
  1247  000050                     i2u18_40:
  1248  000050                     
  1249                           ;setup.c: 106:     {;setup.c: 107:         TMR3IF = 0;
  1250  000050  92A1               	bcf	4001,1,c	;volatile
  1251  000052                     
  1252                           ;setup.c: 108:         clr_Timer3();
  1253  000052  ECD4  F001         	call	_clr_Timer3	;wreg free
  1254  000056                     
  1255                           ;setup.c: 109:         guc_3_Tick++;
  1256  000056  2A4F               	incf	_guc_3_Tick^0,f,c
  1257  000058                     
  1258                           ;setup.c: 110:         gucTestBit++;
  1259  000058  2A4E               	incf	_gucTestBit^0,f,c
  1260  00005A                     i2l160:
  1261  00005A  9251               	bcf	int$flags,1,c	;clear compiler interrupt flag (level 2)
  1262  00005C  0011               	retfie		f
  1263  00005E                     __end_of_ISR:
  1264                           	opt callstack 0
  1265                           
  1266 ;; *************** function _clr_Timer3 *****************
  1267 ;; Defined at:
  1268 ;;		line 90 in file "setup.c"
  1269 ;; Parameters:    Size  Location     Type
  1270 ;;		None
  1271 ;; Auto vars:     Size  Location     Type
  1272 ;;		None
  1273 ;; Return value:  Size  Location     Type
  1274 ;;                  1    wreg      void 
  1275 ;; Registers used:
  1276 ;;		wreg, status,2
  1277 ;; Tracked objects:
  1278 ;;		On entry : 0/0
  1279 ;;		On exit  : 0/0
  1280 ;;		Unchanged: 0/0
  1281 ;; Data sizes:     COMRAM   BANK0   BANK1   BANK2   BANK3   BANK4   BANK5
  1282 ;;      Params:         0       0       0       0       0       0       0
  1283 ;;      Locals:         0       0       0       0       0       0       0
  1284 ;;      Temps:          0       0       0       0       0       0       0
  1285 ;;      Totals:         0       0       0       0       0       0       0
  1286 ;;Total ram usage:        0 bytes
  1287 ;; Hardware stack levels used:    1
  1288 ;; This function calls:
  1289 ;;		Nothing
  1290 ;; This function is called by:
  1291 ;;		_ISR
  1292 ;; This function uses a non-reentrant model
  1293 ;;
  1294                           
  1295                           	psect	text11
  1296  0003A8                     __ptext11:
  1297                           	opt callstack 0
  1298  0003A8                     _clr_Timer3:
  1299                           	opt callstack 26
  1300  0003A8                     
  1301                           ;setup.c: 92:     TMR3H = 0;
  1302  0003A8  0E00               	movlw	0
  1303  0003AA  6EB3               	movwf	179,c	;volatile
  1304                           
  1305                           ;setup.c: 93:     TMR3L = 0;
  1306  0003AC  0E00               	movlw	0
  1307  0003AE  6EB2               	movwf	178,c	;volatile
  1308  0003B0  0012               	return		;funcret
  1309  0003B2                     __end_of_clr_Timer3:
  1310                           	opt callstack 0
  1311                           
  1312 ;; *************** function _clr_Timer *****************
  1313 ;; Defined at:
  1314 ;;		line 84 in file "setup.c"
  1315 ;; Parameters:    Size  Location     Type
  1316 ;;		None
  1317 ;; Auto vars:     Size  Location     Type
  1318 ;;		None
  1319 ;; Return value:  Size  Location     Type
  1320 ;;                  1    wreg      void 
  1321 ;; Registers used:
  1322 ;;		wreg, status,2
  1323 ;; Tracked objects:
  1324 ;;		On entry : 0/0
  1325 ;;		On exit  : 0/0
  1326 ;;		Unchanged: 0/0
  1327 ;; Data sizes:     COMRAM   BANK0   BANK1   BANK2   BANK3   BANK4   BANK5
  1328 ;;      Params:         0       0       0       0       0       0       0
  1329 ;;      Locals:         0       0       0       0       0       0       0
  1330 ;;      Temps:          0       0       0       0       0       0       0
  1331 ;;      Totals:         0       0       0       0       0       0       0
  1332 ;;Total ram usage:        0 bytes
  1333 ;; Hardware stack levels used:    1
  1334 ;; This function calls:
  1335 ;;		Nothing
  1336 ;; This function is called by:
  1337 ;;		_ISR
  1338 ;; This function uses a non-reentrant model
  1339 ;;
  1340                           
  1341                           	psect	text12
  1342  0003B2                     __ptext12:
  1343                           	opt callstack 0
  1344  0003B2                     _clr_Timer:
  1345                           	opt callstack 26
  1346  0003B2                     
  1347                           ;setup.c: 86:     TMR0H = 0;
  1348  0003B2  0E00               	movlw	0
  1349  0003B4  6ED7               	movwf	215,c	;volatile
  1350                           
  1351                           ;setup.c: 87:     TMR0L = 0;
  1352  0003B6  0E00               	movlw	0
  1353  0003B8  6ED6               	movwf	214,c	;volatile
  1354  0003BA  0012               	return		;funcret
  1355  0003BC                     __end_of_clr_Timer:
  1356                           	opt callstack 0
  1357  0000                     
  1358                           	psect	rparam
  1359  0000                     
  1360                           	psect	temp
  1361  000051                     btemp:
  1362                           	opt callstack 0
  1363  000051                     	ds	1
  1364  0000                     int$flags	set	btemp
  1365  0000                     wtemp8	set	btemp+1
  1366  0000                     ttemp5	set	btemp+1
  1367  0000                     ttemp6	set	btemp+4
  1368  0000                     ttemp7	set	btemp+8
  1369                           tosu	equ	0xFFF
  1370                           tosh	equ	0xFFE
  1371                           tosl	equ	0xFFD
  1372                           stkptr	equ	0xFFC
  1373                           pclatu	equ	0xFFB
  1374                           pclath	equ	0xFFA
  1375                           pcl	equ	0xFF9
  1376                           tblptru	equ	0xFF8
  1377                           tblptrh	equ	0xFF7
  1378                           tblptrl	equ	0xFF6
  1379                           tablat	equ	0xFF5
  1380                           prodh	equ	0xFF4
  1381                           prodl	equ	0xFF3
  1382                           indf0	equ	0xFEF
  1383                           postinc0	equ	0xFEE
  1384                           postdec0	equ	0xFED
  1385                           preinc0	equ	0xFEC
  1386                           plusw0	equ	0xFEB
  1387                           fsr0h	equ	0xFEA
  1388                           fsr0l	equ	0xFE9
  1389                           wreg	equ	0xFE8
  1390                           indf1	equ	0xFE7
  1391                           postinc1	equ	0xFE6
  1392                           postdec1	equ	0xFE5
  1393                           preinc1	equ	0xFE4
  1394                           plusw1	equ	0xFE3
  1395                           fsr1h	equ	0xFE2
  1396                           fsr1l	equ	0xFE1
  1397                           bsr	equ	0xFE0
  1398                           indf2	equ	0xFDF
  1399                           postinc2	equ	0xFDE
  1400                           postdec2	equ	0xFDD
  1401                           preinc2	equ	0xFDC
  1402                           plusw2	equ	0xFDB
  1403                           fsr2h	equ	0xFDA
  1404                           fsr2l	equ	0xFD9
  1405                           status	equ	0xFD8


Data Sizes:
    Strings     0
    Constant    0
    Data        81
    BSS         10
    Persistent  0
    Stack       0

Auto Spaces:
    Space          Size  Autos    Used
    COMRAM           94     16      80
    BANK0           160      0      27
    BANK1           256      0       0
    BANK2           256      0       0
    BANK3           256      0       0
    BANK4           256      0       0
    BANK5           256      0       0

Pointer List with Targets:

    astOutputs.port	PTR volatile unsigned char  size(2) Largest target is 1
		 -> LATA(SFR[1]), PORTB(SFR[1]), PORTD(SFR[1]), LATE(SFR[1]), 
		 -> LATB(SFR[1]), LATC(SFR[1]), 

    astInputs.port	PTR volatile unsigned char  size(2) Largest target is 1
		 -> LATA(SFR[1]), PORTB(SFR[1]), PORTD(SFR[1]), LATE(SFR[1]), 
		 -> LATB(SFR[1]), LATC(SFR[1]), 

    get_IO@IO.port	PTR volatile unsigned char  size(2) Largest target is 1
		 -> LATA(SFR[1]), PORTB(SFR[1]), PORTD(SFR[1]), LATE(SFR[1]), 
		 -> LATB(SFR[1]), LATC(SFR[1]), 

    get_IO@IO	PTR struct gstGPIO size(2) Largest target is 36
		 -> astOutputs(COMRAM[27]), astInputs(BANK0[27]), 

    set_IO@IO.port	PTR volatile unsigned char  size(2) Largest target is 1
		 -> LATA(SFR[1]), PORTB(SFR[1]), PORTD(SFR[1]), LATE(SFR[1]), 
		 -> LATB(SFR[1]), LATC(SFR[1]), 

    set_IO@IO	PTR struct gstGPIO size(2) Largest target is 36
		 -> astOutputs(COMRAM[27]), astLEDs(COMRAM[27]), 

    set_IO@ucLocal	PTR volatile unsigned char  size(2) Largest target is 1
		 -> LATA(SFR[1]), PORTB(SFR[1]), PORTD(SFR[1]), LATE(SFR[1]), 
		 -> LATB(SFR[1]), LATC(SFR[1]), 

    S24gstGPIO$port	PTR volatile unsigned char  size(2) Largest target is 1
		 -> LATA(SFR[1]), PORTB(SFR[1]), PORTD(SFR[1]), LATE(SFR[1]), 
		 -> LATB(SFR[1]), LATC(SFR[1]), 

    astLEDs.port	PTR volatile unsigned char  size(2) Largest target is 1
		 -> LATA(SFR[1]), PORTB(SFR[1]), PORTD(SFR[1]), LATE(SFR[1]), 
		 -> LATB(SFR[1]), LATC(SFR[1]), 


Critical Paths under _main in COMRAM

    _main->_testing
    _testing->_compare_IO
    _compare_IO->_get_IO
    _compare_IO->_set_IO
    _setup->_all_LEDs
    _all_LEDs->_set_IO
    _clr_LEDs->_set_IO

Critical Paths under _ISR in COMRAM

    None.

Critical Paths under _main in BANK0

    None.

Critical Paths under _ISR in BANK0

    None.

Critical Paths under _main in BANK1

    None.

Critical Paths under _ISR in BANK1

    None.

Critical Paths under _main in BANK2

    None.

Critical Paths under _ISR in BANK2

    None.

Critical Paths under _main in BANK3

    None.

Critical Paths under _ISR in BANK3

    None.

Critical Paths under _main in BANK4

    None.

Critical Paths under _ISR in BANK4

    None.

Critical Paths under _main in BANK5

    None.

Critical Paths under _ISR in BANK5

    None.

Call Graph Tables:

 ---------------------------------------------------------------------------------
 (Depth) Function   	        Calls       Base Space   Used Autos Params    Refs
 ---------------------------------------------------------------------------------
 (0) _main                                                 0     0      0    6040
                           _clr_LEDs
                              _setup
                            _testing
 ---------------------------------------------------------------------------------
 (1) _testing                                              1     1      0    3226
                                             15 COMRAM     1     1      0
                         _compare_IO
                             _set_IO
 ---------------------------------------------------------------------------------
 (2) _compare_IO                                           3     3      0    1843
                                             12 COMRAM     3     3      0
                             _get_IO
                             _set_IO
 ---------------------------------------------------------------------------------
 (3) _get_IO                                              11     8      3     392
                                              1 COMRAM    11     8      3
 ---------------------------------------------------------------------------------
 (1) _setup                                                0     0      0    1407
                           _IO_setup
          _Timer_and_Interrupt_setup
                           _all_LEDs
 ---------------------------------------------------------------------------------
 (2) _all_LEDs                                             1     1      0    1407
                                             12 COMRAM     1     1      0
                             _set_IO
 ---------------------------------------------------------------------------------
 (2) _Timer_and_Interrupt_setup                            0     0      0       0
 ---------------------------------------------------------------------------------
 (2) _IO_setup                                             0     0      0       0
 ---------------------------------------------------------------------------------
 (1) _clr_LEDs                                             1     1      0    1407
                                             12 COMRAM     1     1      0
                             _set_IO
 ---------------------------------------------------------------------------------
 (2) _set_IO                                              11     7      4    1339
                                              1 COMRAM    11     7      4
 ---------------------------------------------------------------------------------
 Estimated maximum stack depth 3
 ---------------------------------------------------------------------------------
 (Depth) Function   	        Calls       Base Space   Used Autos Params    Refs
 ---------------------------------------------------------------------------------
 (4) _ISR                                                  1     1      0       0
                                              0 COMRAM     1     1      0
                          _clr_Timer
                         _clr_Timer3
 ---------------------------------------------------------------------------------
 (5) _clr_Timer3                                           0     0      0       0
 ---------------------------------------------------------------------------------
 (5) _clr_Timer                                            0     0      0       0
 ---------------------------------------------------------------------------------
 Estimated maximum stack depth 5
 ---------------------------------------------------------------------------------

 Call Graph Graphs:

 _main (ROOT)
   _clr_LEDs
     _set_IO
   _setup
     _IO_setup
     _Timer_and_Interrupt_setup
     _all_LEDs
       _set_IO
   _testing
     _compare_IO
       _get_IO
       _set_IO
     _set_IO

 _ISR (ROOT)
   _clr_Timer
   _clr_Timer3

 Address spaces:
Name               Size   Autos  Total    Cost      Usage
BIGRAM             5FF      0       0      17        0.0%
EEDATA             100      0       0       0        0.0%
BITBANK5           100      0       0      16        0.0%
BANK5              100      0       0      14        0.0%
BITBANK4           100      0       0      12        0.0%
BANK4              100      0       0      13        0.0%
BITBANK3           100      0       0      10        0.0%
BANK3              100      0       0      11        0.0%
BITBANK2           100      0       0       8        0.0%
BANK2              100      0       0       9        0.0%
BITBANK1           100      0       0       6        0.0%
BANK1              100      0       0       7        0.0%
BITBANK0            A0      0       0       4        0.0%
BANK0               A0      0      1B       5       16.9%
BITCOMRAM           5E      0       0       0        0.0%
COMRAM              5E     10      50       1       85.1%
BITSFR               0      0       0     200        0.0%
SFR                  0      0       0     200        0.0%
STACK                0      0       0       2        0.0%
NULL                 0      0       0       0        0.0%
ABS                  0      0      6B      15        0.0%
DATA                 0      0      6B       3        0.0%
CODE                 0      0       0       0        0.0%


Microchip Technology PIC18 Macro Assembler V2.10 build 88905656 
Symbol Table                                                                                   Wed Jan 27 13:52:04 2021

               testing@ucLocalTicks 004A                                  l23 0344  
                                l28 0318                                  l67 02C8  
                               l134 0124                                 l144 037C  
                               l137 018A                                 l147 03A6  
                               l173 0360                                 l188 0288  
                               l199 01E2                                 l901 036A  
                               l911 0374                                 l903 036C  
                               l913 0376                                 l905 036E  
                               l915 0378                                 l907 0370  
                               l917 037A                                 l909 0372  
                               l919 039A                                 l899 0362  
                               u300 0344                                 u301 0340  
                               u230 0092                                 u310 019E  
                               u231 008E                                 u311 019A  
                               u320 01BE                                 u321 01BA  
                               u330 02DE                                 u331 02DA  
                               u244 00C4                                 u245 00C0  
                               u254 010C                                 u270 0318  
                               u255 0108                                 u271 0314  
                               u264 0180                                 u280 0280  
                               u265 017C                                 u281 027A  
                               u290 0282                                 _ISR 0008  
                               wreg 000FE8                        __CFG_LVP$OFF 000000  
                              ?_ISR 0037                                l1101 018E  
                              l1111 01BE                                l1103 019E  
                              l1113 01C0                                l1105 01A6  
                              l1121 02C0                                l1051 00DA  
                              l1115 01C8                                l1107 01AA  
                              l1123 02CE                                l1045 0062  
                              l1053 0126                                l1117 01DC  
                              l1109 01AC                                l1125 02DE  
                              l1047 0082                                l1071 031A  
                              l1063 02F2                                l1127 02E2  
                              l1049 0092                                l1081 0334  
                              l1065 0306                                l1057 02EE  
                              l1067 0308                                l1091 0354  
                              l1083 0346                                l1077 031E  
                              l1093 0356                                l1085 0348  
                              l1069 023C                                l1079 0332  
                              l1095 0358                                l1087 034C  
                              l1097 035A                                l1089 0352  
                              l1099 035C                                _LATA 000F89  
                              _LATB 000F8A                                _LATC 000F8B  
                              _LATE 000F8D                                _main 02C0  
                              fsr2h 000FDA                                indf2 000FDF  
                              fsr1l 000FE1                                fsr2l 000FD9  
                              btemp 0051                                prodh 000FF4  
                              prodl 000FF3                                start 005E  
                      ___param_bank 000000                               ??_ISR 0037  
                             ?_main 0037                               _T0CON 000FD5  
                             _T3CON 000FB1                               i2l150 03BA  
                             i2l160 005A                               i2l153 03B0  
                             i2l975 03B2                               i2l977 03A8  
                             _TMR0H 000FD7                               _TMR0L 000FD6  
                             _TMR3H 000FB3                               _TMR3L 000FB2  
                             _PORTB 000F81                               _PORTD 000F83  
                             _TRISA 000F92                               _TRISC 000F94  
                             _TRISD 000F95                               _setup 0346  
                  __end_of_IO_setup 037E                               tablat 000FF5  
                   __end_of_testing 01E4                               ttemp5 0052  
                             ttemp6 0055                               ttemp7 0059  
                             status 000FD8                               wtemp8 0052  
                   __initialization 01E4                        __end_of_main 02EE  
                  testing@TargetBit 0046                              ??_main 0047  
                     __activetblptr 000000                 heartbeat@ucOverFlow 004C  
       ??_Timer_and_Interrupt_setup 0038                              ?_setup 0037  
                            i2l1021 0040                              i2l1013 000A  
                            i2l1031 0058                              i2l1015 0018  
                            i2l1023 0042                              i2l1025 0050  
                            i2l1017 001A                              i2l1027 0052  
                            i2l1019 001E                              i2l1029 0056  
                    __CFG_WDTEN$OFF 000000                              _OSCCON 000FD3  
                  __end_of_all_LEDs 031A                              _TMR0IF 007F92  
                            _TMR3IF 007D09                    __end_of_clr_LEDs 0346  
                            _gbTick 0050                              _get_IO 0126  
                            clear_0 022A                              _set_IO 0062  
               compare_IO@TargetBit 0045                        __pdataCOMRAM 0001  
                            tblptrh 000FF7                              tblptrl 000FF6  
                            tblptru 000FF8                           ??_testing 0046  
                        __accesstop 0060             __end_of__initialization 0230  
                     ___rparam_used 000001                       set_IO@ucLocal 0041  
         _Timer_and_Interrupt_setup 039A                      __pcstackCOMRAM 0037  
                      __pidataBANK0 037E                       __end_of_setup 0362  
                         ?_IO_setup 0037                  __size_of_clr_Timer 000A  
                    testing@nbFirst 0049                             ??_setup 0044  
                 compare_IO@bOutput 0043                             ?_get_IO 0038  
                        _clr_Timer3 03A8                             ?_set_IO 0038  
                        ??_IO_setup 0038                           ?_all_LEDs 0037  
                        _guc_3_Tick 004F                           ?_clr_LEDs 0037  
                        _astOutputs 0001                             i2u15_40 0018  
                           i2u15_41 0014                             i2u16_40 0030  
                           i2u16_41 0028                             i2u18_40 0050  
                           i2u17_48 0032                             i2u18_41 004C  
                        _compare_IO 023A                          all_LEDs@uc 0043  
                        _gucTestBit 004E                   __end_of_clr_Timer 03BC  
                           __Hparam 0000                             __Lparam 0000  
                   __size_of_get_IO 0066                             __pcinit 01E4  
                           _astLEDs 001C                             __ramtop 0600  
                   __size_of_set_IO 00C4                             __ptext0 02C0  
                           __ptext1 018C                             __ptext2 023A  
                           __ptext3 0126                             __ptext4 0346  
                           __ptext5 02EE                             __ptext6 039A  
                           __ptext7 0362                             __ptext8 031A  
                           __ptext9 0062                           _T0CONbits 000FD5  
                      __size_of_ISR 0056                          ??_all_LEDs 0043  
                         _T3CONbits 000FB1                          ??_clr_LEDs 0043  
                        clr_LEDs@uc 0043                             _testing 018C  
              end_of_initialization 0230                          get_IO@item 003A  
                           postdec1 000FE5                             postdec2 000FDD  
                           postinc0 000FEE                             postinc2 000FDE  
                       ?_clr_Timer3 0037  __size_of_Timer_and_Interrupt_setup 000E  
                         _TRISBbits 000F93                           _TRISEbits 000F96  
              heartbeat@uwStartTime 0047                         ?_compare_IO 0037  
                     __pidataCOMRAM 028A                      __end_of_get_IO 018C  
                    __end_of_set_IO 0126                   __size_of_IO_setup 001C  
               start_initialization 01E4                         __end_of_ISR 005E  
               __size_of_clr_Timer3 000A                            ??_get_IO 003B  
               __size_of_compare_IO 0050                         __pdataBANK0 0060  
                          ??_set_IO 003C                        set_IO@bValue 003B  
                       __pbssCOMRAM 0047                   __size_of_all_LEDs 002C  
                  heartbeat@nbFirst 004D                   __size_of_clr_LEDs 002C  
                  compare_IO@bInput 0044                          set_IO@item 003A  
                         __pintcode 0008                           _clr_Timer 03B2  
                         _astInputs 0060                            ?_testing 0037  
                    __size_of_setup 001C                            _LATBbits 000F8A  
                          _LATEbits 000F8D                          ?_clr_Timer 0037  
                      ??_clr_Timer3 0037                            _IO_setup 0362  
                      ??_compare_IO 0043                           copy_data0 01F8  
                         copy_data1 0218                  __end_of_clr_Timer3 03B2  
                          __Hrparam 0000                            __Lrparam 0000  
                __end_of_compare_IO 028A                            _all_LEDs 02EE  
                          _clr_LEDs 031A                            __ptext11 03A8  
                          __ptext12 03B2                    __size_of_testing 0058  
                     __size_of_main 002E                            get_IO@IO 0038  
                       ??_clr_Timer 0037                            int$flags 0051  
        ?_Timer_and_Interrupt_setup 0037                          _INTCONbits 000FF2  
                          intlevel2 0000                            set_IO@IO 0038  
                          testing@b 004B   __end_of_Timer_and_Interrupt_setup 03A8  
                 __CFG_FOSC$INTIO67 000000  
